; ModuleID = '36/663.c'
source_filename = "36/663.c"
target datalayout = "e-m:e-p270:32:32-p271:32:32-p272:64:64-i64:64-f80:128-n8:16:32:64-S128"
target triple = "x86_64-pc-linux-gnu"

@.str = private unnamed_addr constant [6 x i8] c"%s %s\00", align 1
@.str.1 = private unnamed_addr constant [3 x i8] c"NO\00", align 1
@.str.2 = private unnamed_addr constant [4 x i8] c"YES\00", align 1

; Function Attrs: noinline nounwind uwtable
define dso_local i32 @main() #0 {
  %1 = alloca i32, align 4
  %2 = alloca [1000 x i8], align 16
  %3 = alloca [1000 x i8], align 16
  %4 = alloca [128 x i32], align 16
  %5 = alloca [128 x i32], align 16
  %6 = alloca i32, align 4
  %7 = alloca i32, align 4
  store i32 0, i32* %1, align 4
  %8 = bitcast [128 x i32]* %4 to i8*
  call void @llvm.memset.p0i8.i64(i8* align 16 %8, i8 0, i64 512, i1 false)
  %9 = bitcast [128 x i32]* %5 to i8*
  call void @llvm.memset.p0i8.i64(i8* align 16 %9, i8 0, i64 512, i1 false)
  store i32 1, i32* %6, align 4
  %10 = getelementptr inbounds [1000 x i8], [1000 x i8]* %2, i64 0, i64 0
  %11 = getelementptr inbounds [1000 x i8], [1000 x i8]* %3, i64 0, i64 0
  %12 = call i32 (i8*, ...) @__isoc99_scanf(i8* getelementptr inbounds ([6 x i8], [6 x i8]* @.str, i64 0, i64 0), i8* %10, i8* %11)
  store i32 0, i32* %7, align 4
  br label %13

13:                                               ; preds = %29, %0
  %14 = load i32, i32* %7, align 4
  %15 = sext i32 %14 to i64
  %16 = getelementptr inbounds [1000 x i8], [1000 x i8]* %2, i64 0, i64 0
  %17 = call i64 @strlen(i8* %16) #4
  %18 = sub i64 %17, 1
  %19 = icmp ule i64 %15, %18
  br i1 %19, label %20, label %32

20:                                               ; preds = %13
  %21 = load i32, i32* %7, align 4
  %22 = sext i32 %21 to i64
  %23 = getelementptr inbounds [1000 x i8], [1000 x i8]* %2, i64 0, i64 %22
  %24 = load i8, i8* %23, align 1
  %25 = sext i8 %24 to i64
  %26 = getelementptr inbounds [128 x i32], [128 x i32]* %4, i64 0, i64 %25
  %27 = load i32, i32* %26, align 4
  %28 = add nsw i32 %27, 1
  store i32 %28, i32* %26, align 4
  br label %29

29:                                               ; preds = %20
  %30 = load i32, i32* %7, align 4
  %31 = add nsw i32 %30, 1
  store i32 %31, i32* %7, align 4
  br label %13

32:                                               ; preds = %13
  store i32 0, i32* %7, align 4
  br label %33

33:                                               ; preds = %49, %32
  %34 = load i32, i32* %7, align 4
  %35 = sext i32 %34 to i64
  %36 = getelementptr inbounds [1000 x i8], [1000 x i8]* %3, i64 0, i64 0
  %37 = call i64 @strlen(i8* %36) #4
  %38 = sub i64 %37, 1
  %39 = icmp ule i64 %35, %38
  br i1 %39, label %40, label %52

40:                                               ; preds = %33
  %41 = load i32, i32* %7, align 4
  %42 = sext i32 %41 to i64
  %43 = getelementptr inbounds [1000 x i8], [1000 x i8]* %3, i64 0, i64 %42
  %44 = load i8, i8* %43, align 1
  %45 = sext i8 %44 to i64
  %46 = getelementptr inbounds [128 x i32], [128 x i32]* %5, i64 0, i64 %45
  %47 = load i32, i32* %46, align 4
  %48 = add nsw i32 %47, 1
  store i32 %48, i32* %46, align 4
  br label %49

49:                                               ; preds = %40
  %50 = load i32, i32* %7, align 4
  %51 = add nsw i32 %50, 1
  store i32 %51, i32* %7, align 4
  br label %33

52:                                               ; preds = %33
  store i32 0, i32* %7, align 4
  br label %53

53:                                               ; preds = %68, %52
  %54 = load i32, i32* %7, align 4
  %55 = icmp sle i32 %54, 127
  br i1 %55, label %56, label %71

56:                                               ; preds = %53
  %57 = load i32, i32* %7, align 4
  %58 = sext i32 %57 to i64
  %59 = getelementptr inbounds [128 x i32], [128 x i32]* %4, i64 0, i64 %58
  %60 = load i32, i32* %59, align 4
  %61 = load i32, i32* %7, align 4
  %62 = sext i32 %61 to i64
  %63 = getelementptr inbounds [128 x i32], [128 x i32]* %5, i64 0, i64 %62
  %64 = load i32, i32* %63, align 4
  %65 = icmp ne i32 %60, %64
  br i1 %65, label %66, label %67

66:                                               ; preds = %56
  store i32 0, i32* %6, align 4
  br label %67

67:                                               ; preds = %66, %56
  br label %68

68:                                               ; preds = %67
  %69 = load i32, i32* %7, align 4
  %70 = add nsw i32 %69, 1
  store i32 %70, i32* %7, align 4
  br label %53

71:                                               ; preds = %53
  %72 = load i32, i32* %6, align 4
  %73 = icmp eq i32 %72, 0
  br i1 %73, label %74, label %76

74:                                               ; preds = %71
  %75 = call i32 (i8*, ...) @printf(i8* getelementptr inbounds ([3 x i8], [3 x i8]* @.str.1, i64 0, i64 0))
  br label %78

76:                                               ; preds = %71
  %77 = call i32 (i8*, ...) @printf(i8* getelementptr inbounds ([4 x i8], [4 x i8]* @.str.2, i64 0, i64 0))
  br label %78

78:                                               ; preds = %76, %74
  %79 = load i32, i32* %1, align 4
  ret i32 %79
}

; Function Attrs: argmemonly nounwind willreturn
declare void @llvm.memset.p0i8.i64(i8* nocapture writeonly, i8, i64, i1 immarg) #1

declare dso_local i32 @__isoc99_scanf(i8*, ...) #2

; Function Attrs: nounwind readonly
declare dso_local i64 @strlen(i8*) #3

declare dso_local i32 @printf(i8*, ...) #2


!llvm.module.flags = !{!0}
!llvm.ident = !{!1}

!0 = !{i32 1, !"wchar_size", i32 4}
!1 = !{!"clang version 10.0.0-4ubuntu1 "}
